target datalayout = "e-m:e-p270:32:32-p271:32:32-p272:64:64-i64:64-i128:128-f80:128-n8:16:32:64-S128"
target triple = "x86_64-pc-linux-gnu"

%struct.CVodeMemRec = type { ptr, double, ptr, ptr, i32, i32, double, double, ptr, i32, i32, ptr, ptr, i32, i32, ptr, i32, i32, double, double, ptr, i32, i32, i32, i32, ptr, ptr, ptr, i32, i32, ptr, ptr, ptr, i32, double, i32, i32, double, ptr, ptr, ptr, i32, ptr, ptr, i32, i32, i32, double, ptr, ptr, ptr, [13 x ptr], ptr, ptr, ptr, ptr, ptr, ptr, ptr, ptr, ptr, [13 x ptr], ptr, ptr, ptr, ptr, [13 x ptr], ptr, ptr, ptr, ptr, ptr, i32, [13 x ptr], ptr, ptr, ptr, ptr, ptr, i32, i32, double, i32, i32, i32, i32, i32, double, double, double, double, double, double, double, double, [14 x double], [6 x double], [13 x double], double, double, double, double, double, double, double, double, i32, double, double, i32, double, double, ptr, i32, i64, i32, i32, i32, double, double, double, double, double, double, double, double, double, double, double, double, i64, i32, i64, i64, i64, i64, i64, i64, i64, i64, i64, ptr, i64, i64, ptr, i64, i64, ptr, i64, i64, i64, i64, i64, i64, i32, double, double, double, i64, i64, i64, i64, i64, i64, ptr, i32, ptr, i32, ptr, i32, ptr, i32, i32, i64, i32, ptr, i32, ptr, ptr, ptr, ptr, ptr, ptr, i32, i32, ptr, ptr, ptr, ptr, ptr, i64, double, i32, i32, i64, double, double, double, i32, i32, double, i32, i32, i32, i32, i32, i32, i32, i32, i32, i32, i32, i32, i32, i32, i32, i32, ptr, i64, i32, [6 x [4 x double]], i32, i64, ptr, i32, ptr, ptr, double, double, double, ptr, ptr, ptr, double, double, i32, i32, i64, ptr, i32, ptr, i32, i32, [13 x double], ptr, ptr, ptr, i32, ptr, i32 }

@.str = private unnamed_addr constant [120 x i8] c"generated/home/dtcxzyw/WorkSpace/Projects/compilers/llvm-opt-benchmark/bench/sundials/sundials/src/cvodes/cvodes_diag.c\00", align 1
@.str.1 = private unnamed_addr constant [27 x i8] c"Integrator memory is NULL.\00", align 1
@__func__.CVDiagGetWorkSpace = private unnamed_addr constant [19 x i8] c"CVDiagGetWorkSpace\00", align 1

; Function Attrs: nounwind uwtable
define i32 @CVDiagGetWorkSpace(ptr noundef %0, ptr noundef %1, ptr noundef %2) #0 {
  %4 = alloca i32, align 4
  %5 = alloca ptr, align 8
  %6 = alloca ptr, align 8
  %7 = alloca ptr, align 8
  %8 = alloca ptr, align 8
  %9 = alloca i32, align 4
  store ptr %0, ptr %5, align 8, !tbaa !3
  store ptr %1, ptr %6, align 8, !tbaa !53
  store ptr %2, ptr %7, align 8, !tbaa !53
  call void @llvm.lifetime.start.p0(i64 8, ptr %8) #5
  %10 = load ptr, ptr %5, align 8, !tbaa !3
  %11 = icmp eq ptr %10, null
  br i1 %11, label %12, label %13

12:                                               ; preds = %3
  call void (ptr, i32, i32, ptr, ptr, ptr, ...) @cvProcessError(ptr noundef null, i32 noundef -1, i32 noundef 191, ptr noundef @__func__.CVDiagGetWorkSpace, ptr noundef @.str, ptr noundef @.str.1)
  store i32 -1, ptr %4, align 4
  store i32 1, ptr %9, align 4
  br label %25

13:                                               ; preds = %3
  %14 = load ptr, ptr %5, align 8, !tbaa !3
  store ptr %14, ptr %8, align 8, !tbaa !7
  %15 = load ptr, ptr %8, align 8, !tbaa !7
  %16 = getelementptr inbounds nuw %struct.CVodeMemRec, ptr %15, i32 0, i32 158
  %17 = load i64, ptr %16, align 8, !tbaa !54
  %18 = mul nsw i64 3, %17
  %19 = load ptr, ptr %6, align 8, !tbaa !53
  store i64 %18, ptr %19, align 8, !tbaa !55
  %20 = load ptr, ptr %8, align 8, !tbaa !7
  %21 = getelementptr inbounds nuw %struct.CVodeMemRec, ptr %20, i32 0, i32 159
  %22 = load i64, ptr %21, align 8, !tbaa !56
  %23 = mul nsw i64 3, %22
  %24 = load ptr, ptr %7, align 8, !tbaa !53
  store i64 %23, ptr %24, align 8, !tbaa !55
  store i32 0, ptr %4, align 4
  store i32 1, ptr %9, align 4
  br label %25

25:                                               ; preds = %13, %12
  call void @llvm.lifetime.end.p0(i64 8, ptr %8) #5
  %26 = load i32, ptr %4, align 4
  ret i32 %26
}