; Function Attrs: nounwind uwtable
define range(i32 -1, 1) i32 @CVDiagGetWorkSpace(ptr noundef readonly captures(address_is_null) %0, ptr noundef writeonly captures(none) %1, ptr noundef writeonly captures(none) %2) local_unnamed_addr #0 {
  %4 = icmp eq ptr %0, null
  br i1 %4, label %5, label %6

5:                                                ; preds = %3
  tail call void (ptr, i32, i32, ptr, ptr, ptr, ...) @cvProcessError(ptr noundef null, i32 noundef -1, i32 noundef 191, ptr noundef nonnull @__func__.CVDiagGetWorkSpace, ptr noundef nonnull @.str, ptr noundef nonnull @.str.1) #8
  br label %13

6:                                                ; preds = %3
  %7 = getelementptr inbounds nuw i8, ptr %0, i64 1784
  %8 = load i64, ptr %7, align 8, !tbaa !48
  %9 = mul nsw i64 %8, 3
  store i64 %9, ptr %1, align 8, !tbaa !49
  %10 = getelementptr inbounds nuw i8, ptr %0, i64 1792
  %11 = load i64, ptr %10, align 8, !tbaa !50
  %12 = mul nsw i64 %11, 3
  store i64 %12, ptr %2, align 8, !tbaa !49
  br label %13

13:                                               ; preds = %6, %5
  %.0 = phi i32 [ -1, %5 ], [ 0, %6 ]
  ret i32 %.0
}